; Function Attrs: mustprogress nofree norecurse nosync nounwind willreturn memory(read, inaccessiblemem: none) uwtable
define noundef i32 @_ZN5ImGui22TableGetColumnResizeIDEP10ImGuiTableii(ptr noundef readonly captures(none) %0, i32 noundef %1, i32 noundef %2) local_unnamed_addr #13 {
  %4 = icmp eq i32 %2, 0
  br i1 %4, label %5, label %7

5:                                                ; preds = %3
  %6 = getelementptr inbounds nuw i8, ptr %0, i64 424
  br label %_ZN5ImGui18TableGetInstanceIDEP10ImGuiTablei.exit

7:                                                ; preds = %3
  %8 = getelementptr inbounds nuw i8, ptr %0, i64 456
  %9 = load ptr, ptr %8, align 8, !tbaa !216
  %10 = sext i32 %2 to i64
  %11 = getelementptr %struct.ImGuiTableInstanceData, ptr %9, i64 %10
  %12 = getelementptr i8, ptr %11, i64 -24
  br label %_ZN5ImGui18TableGetInstanceIDEP10ImGuiTablei.exit

_ZN5ImGui18TableGetInstanceIDEP10ImGuiTablei.exit: ; preds = %5, %7
  %.0.i.i = phi ptr [ %6, %5 ], [ %12, %7 ]
  %13 = load i32, ptr %.0.i.i, align 4, !tbaa !218
  %14 = add i32 %1, 1
  %15 = add i32 %14, %13
  ret i32 %15
}